target datalayout = "e-m:e-p270:32:32-p271:32:32-p272:64:64-i64:64-i128:128-f80:128-n8:16:32:64-S128"
target triple = "x86_64-pc-linux-gnu"

%"class.icu_77::ParseData" = type { %"class.icu_77::SymbolTable", ptr, ptr, ptr }
%"class.icu_77::SymbolTable" = type { ptr }
%"class.icu_77::Hashtable" = type { ptr, %struct.UHashtable }
%struct.UHashtable = type { ptr, ptr, ptr, ptr, ptr, ptr, i32, i32, i32, i32, float, float, i8, i8 }
%"class.icu_77::TransliterationRuleData" = type { [8 x i8], %"class.icu_77::TransliterationRuleSet", %"class.icu_77::Hashtable", ptr, i8, i16, i32 }
%"class.icu_77::TransliterationRuleSet" = type { ptr, ptr, ptr, [257 x i32], i32 }
%"class.icu_77::UVector" = type { %"class.icu_77::UObject", i32, i32, ptr, ptr, ptr }
%"class.icu_77::UObject" = type { ptr }
%"class.icu_77::UnicodeString" = type { %"class.icu_77::Replaceable", %"union.icu_77::UnicodeString::StackBufferOrFields" }
%"class.icu_77::Replaceable" = type { %"class.icu_77::UObject" }
%"union.icu_77::UnicodeString::StackBufferOrFields" = type { %struct.anon.0, [32 x i8] }
%struct.anon.0 = type { i16, i32, i32, ptr }
%"class.icu_77::RuleHalf" = type { [8 x i8], %"class.icu_77::UnicodeString", i32, i32, i32, i32, i32, i8, i8, i32, ptr }
%"class.icu_77::TransliteratorParser" = type <{ [8 x i8], %"class.icu_77::UVector", %"class.icu_77::UVector", ptr, ptr, i32, %struct.UParseError, [4 x i8], ptr, %"class.icu_77::UVector", %"class.icu_77::Hashtable", %"class.icu_77::UnicodeString", %"class.icu_77::UVector", i16, i16, [4 x i8], %"class.icu_77::UnicodeString", i16, [6 x i8] }>
%struct.UParseError = type { i32, i32, [16 x i16], [16 x i16] }

; Function Attrs: inlinehint mustprogress nounwind uwtable
define linkonce_odr noundef i32 @_ZNK6icu_777UVector4sizeEv(ptr noundef nonnull align 8 dereferenceable(40) %0) #2 comdat align 2 {
  %2 = alloca ptr, align 8
  store ptr %0, ptr %2, align 8, !tbaa !27
  %3 = load ptr, ptr %2, align 8
  %4 = getelementptr inbounds nuw %"class.icu_77::UVector", ptr %3, i32 0, i32 1
  %5 = load i32, ptr %4, align 8, !tbaa !57
  ret i32 %5
}

; Function Attrs: inlinehint mustprogress nounwind uwtable
define linkonce_odr noundef i32 @_ZNK6icu_7713UnicodeString14getShortLengthEv(ptr noundef nonnull align 8 dereferenceable(64) %0) #2 comdat align 2 {
  %2 = alloca ptr, align 8
  store ptr %0, ptr %2, align 8, !tbaa !40
  %3 = load ptr, ptr %2, align 8
  %4 = getelementptr inbounds nuw %"class.icu_77::UnicodeString", ptr %3, i32 0, i32 1
  %5 = getelementptr inbounds nuw %struct.anon.0, ptr %4, i32 0, i32 0
  %6 = load i16, ptr %5, align 8, !tbaa !68
  %7 = sext i16 %6 to i32
  %8 = ashr i32 %7, 5
  ret i32 %8
}

; Function Attrs: inlinehint mustprogress nounwind uwtable
define linkonce_odr noundef signext i8 @_ZNK6icu_7713UnicodeString14hasShortLengthEv(ptr noundef nonnull align 8 dereferenceable(64) %0) #2 comdat align 2 {
  %2 = alloca ptr, align 8
  store ptr %0, ptr %2, align 8, !tbaa !40
  %3 = load ptr, ptr %2, align 8
  %4 = getelementptr inbounds nuw %"class.icu_77::UnicodeString", ptr %3, i32 0, i32 1
  %5 = getelementptr inbounds nuw %struct.anon.0, ptr %4, i32 0, i32 0
  %6 = load i16, ptr %5, align 8, !tbaa !68
  %7 = sext i16 %6 to i32
  %8 = icmp sge i32 %7, 0
  %9 = zext i1 %8 to i8
  ret i8 %9
}

; Function Attrs: mustprogress uwtable
define noundef signext i8 @_ZN6icu_779ParseData9isMatcherEi(ptr noundef nonnull align 8 dereferenceable(32) %0, i32 noundef %1) #1 align 2 {
  %3 = alloca i8, align 1
  %4 = alloca ptr, align 8
  %5 = alloca i32, align 4
  %6 = alloca i32, align 4
  %7 = alloca ptr, align 8
  %8 = alloca i32, align 4
  store ptr %0, ptr %4, align 8, !tbaa !23
  store i32 %1, ptr %5, align 4, !tbaa !14
  %9 = load ptr, ptr %4, align 8
  call void @llvm.lifetime.start.p0(i64 4, ptr %6) #11
  %10 = load i32, ptr %5, align 4, !tbaa !14
  %11 = getelementptr inbounds nuw %"class.icu_77::ParseData", ptr %9, i32 0, i32 1
  %12 = load ptr, ptr %11, align 8, !tbaa !33
  %13 = getelementptr inbounds nuw %"class.icu_77::TransliterationRuleData", ptr %12, i32 0, i32 5
  %14 = load i16, ptr %13, align 2, !tbaa !50
  %15 = zext i16 %14 to i32
  %16 = sub nsw i32 %10, %15
  store i32 %16, ptr %6, align 4, !tbaa !14
  %17 = load i32, ptr %6, align 4, !tbaa !14
  %18 = icmp sge i32 %17, 0
  br i1 %18, label %19, label %42

19:                                               ; preds = %2
  %20 = load i32, ptr %6, align 4, !tbaa !14
  %21 = getelementptr inbounds nuw %"class.icu_77::ParseData", ptr %9, i32 0, i32 2
  %22 = load ptr, ptr %21, align 8, !tbaa !36
  %23 = call noundef i32 @_ZNK6icu_777UVector4sizeEv(ptr noundef nonnull align 8 dereferenceable(40) %22)
  %24 = icmp slt i32 %20, %23
  br i1 %24, label %25, label %42

25:                                               ; preds = %19
  call void @llvm.lifetime.start.p0(i64 8, ptr %7) #11
  %26 = getelementptr inbounds nuw %"class.icu_77::ParseData", ptr %9, i32 0, i32 2
  %27 = load ptr, ptr %26, align 8, !tbaa !36
  %28 = load i32, ptr %6, align 4, !tbaa !14
  %29 = call noundef ptr @_ZNK6icu_777UVector9elementAtEi(ptr noundef nonnull align 8 dereferenceable(40) %27, i32 noundef %28)
  store ptr %29, ptr %7, align 8, !tbaa !48
  %30 = load ptr, ptr %7, align 8, !tbaa !48
  %31 = icmp ne ptr %30, null
  br i1 %31, label %32, label %39

32:                                               ; preds = %25
  %33 = load ptr, ptr %7, align 8, !tbaa !48
  %34 = load ptr, ptr %33, align 8, !tbaa !31
  %35 = getelementptr inbounds ptr, ptr %34, i64 4
  %36 = load ptr, ptr %35, align 8
  %37 = call noundef ptr %36(ptr noundef nonnull align 8 dereferenceable(8) %33)
  %38 = icmp ne ptr %37, null
  br label %39

39:                                               ; preds = %32, %25
  %40 = phi i1 [ false, %25 ], [ %38, %32 ]
  %41 = zext i1 %40 to i8
  store i8 %41, ptr %3, align 1
  store i32 1, ptr %8, align 4
  call void @llvm.lifetime.end.p0(i64 8, ptr %7) #11
  br label %43

42:                                               ; preds = %19, %2
  store i8 1, ptr %3, align 1
  store i32 1, ptr %8, align 4
  br label %43

43:                                               ; preds = %42, %39
  call void @llvm.lifetime.end.p0(i64 4, ptr %6) #11
  %44 = load i8, ptr %3, align 1
  ret i8 %44
}

; Function Attrs: inlinehint mustprogress uwtable
define linkonce_odr noundef i32 @_ZNK6icu_7713UnicodeString6lengthEv(ptr noundef nonnull align 8 dereferenceable(64) %0) #3 comdat align 2 {
  %2 = alloca ptr, align 8
  store ptr %0, ptr %2, align 8, !tbaa !40
  %3 = load ptr, ptr %2, align 8
  %4 = call noundef signext i8 @_ZNK6icu_7713UnicodeString14hasShortLengthEv(ptr noundef nonnull align 8 dereferenceable(64) %3)
  %5 = icmp ne i8 %4, 0
  br i1 %5, label %6, label %8

6:                                                ; preds = %1
  %7 = call noundef i32 @_ZNK6icu_7713UnicodeString14getShortLengthEv(ptr noundef nonnull align 8 dereferenceable(64) %3)
  br label %12

8:                                                ; preds = %1
  %9 = getelementptr inbounds nuw %"class.icu_77::UnicodeString", ptr %3, i32 0, i32 1
  %10 = getelementptr inbounds nuw %struct.anon.0, ptr %9, i32 0, i32 1
  %11 = load i32, ptr %10, align 4, !tbaa !68
  br label %12

12:                                               ; preds = %8, %6
  %13 = phi i32 [ %7, %6 ], [ %11, %8 ]
  ret i32 %13
}

; Function Attrs: mustprogress uwtable
define noundef signext i8 @_ZN6icu_778RuleHalf12isValidInputERNS_20TransliteratorParserE(ptr noundef nonnull align 8 dereferenceable(112) %0, ptr noundef nonnull align 8 dereferenceable(498) %1) #1 align 2 {
  %3 = alloca i8, align 1
  %4 = alloca ptr, align 8
  %5 = alloca ptr, align 8
  %6 = alloca i32, align 4
  %7 = alloca i32, align 4
  %8 = alloca i32, align 4
  store ptr %0, ptr %4, align 8, !tbaa !69
  store ptr %1, ptr %5, align 8, !tbaa !71
  %9 = load ptr, ptr %4, align 8
  call void @llvm.lifetime.start.p0(i64 4, ptr %6) #11
  store i32 0, ptr %6, align 4, !tbaa !14
  br label %10

10:                                               ; preds = %35, %2
  %11 = load i32, ptr %6, align 4, !tbaa !14
  %12 = getelementptr inbounds nuw %"class.icu_77::RuleHalf", ptr %9, i32 0, i32 1
  %13 = call noundef i32 @_ZNK6icu_7713UnicodeString6lengthEv(ptr noundef nonnull align 8 dereferenceable(64) %12)
  %14 = icmp slt i32 %11, %13
  br i1 %14, label %16, label %15

15:                                               ; preds = %10
  store i32 2, ptr %7, align 4
  br label %36

16:                                               ; preds = %10
  call void @llvm.lifetime.start.p0(i64 4, ptr %8) #11
  %17 = getelementptr inbounds nuw %"class.icu_77::RuleHalf", ptr %9, i32 0, i32 1
  %18 = load i32, ptr %6, align 4, !tbaa !14
  %19 = call noundef i32 @_ZNK6icu_7713UnicodeString8char32AtEi(ptr noundef nonnull align 8 dereferenceable(64) %17, i32 noundef %18)
  store i32 %19, ptr %8, align 4, !tbaa !14
  %20 = load i32, ptr %8, align 4, !tbaa !14
  %21 = icmp ule i32 %20, 65535
  %22 = select i1 %21, i32 1, i32 2
  %23 = load i32, ptr %6, align 4, !tbaa !14
  %24 = add nsw i32 %23, %22
  store i32 %24, ptr %6, align 4, !tbaa !14
  %25 = load ptr, ptr %5, align 8, !tbaa !71
  %26 = getelementptr inbounds nuw %"class.icu_77::TransliteratorParser", ptr %25, i32 0, i32 8
  %27 = load ptr, ptr %26, align 8, !tbaa !101
  %28 = load i32, ptr %8, align 4, !tbaa !14
  %29 = call noundef signext i8 @_ZN6icu_779ParseData9isMatcherEi(ptr noundef nonnull align 8 dereferenceable(32) %27, i32 noundef %28)
  %30 = icmp ne i8 %29, 0
  br i1 %30, label %32, label %31

31:                                               ; preds = %16
  store i8 0, ptr %3, align 1
  store i32 1, ptr %7, align 4
  br label %33

32:                                               ; preds = %16
  store i32 0, ptr %7, align 4
  br label %33

33:                                               ; preds = %32, %31
  call void @llvm.lifetime.end.p0(i64 4, ptr %8) #11
  %34 = load i32, ptr %7, align 4
  switch i32 %34, label %36 [
    i32 0, label %35
  ]

35:                                               ; preds = %33
  br label %10, !llvm.loop !117

36:                                               ; preds = %33, %15
  call void @llvm.lifetime.end.p0(i64 4, ptr %6) #11
  %37 = load i32, ptr %7, align 4
  switch i32 %37, label %41 [
    i32 2, label %38
    i32 1, label %39
  ]

38:                                               ; preds = %36
  store i8 1, ptr %3, align 1
  br label %39

39:                                               ; preds = %38, %36
  %40 = load i8, ptr %3, align 1
  ret i8 %40

41:                                               ; preds = %36
  unreachable
}